; Function Attrs: mustprogress nofree norecurse nosync nounwind memory(argmem: readwrite) uwtable
define internal void @_ZN2cvL17batchDistL1_8u32sEPKhS1_miiPiS1_(ptr nocapture noundef readonly %0, ptr nocapture noundef readonly %1, i64 noundef %2, i32 noundef %3, i32 noundef %4, ptr nocapture noundef writeonly %5, ptr noundef readonly %6) #4 {
  %.not.i = icmp eq ptr %6, null
  %8 = icmp sgt i32 %3, 0
  br i1 %.not.i, label %.preheader.i, label %.preheader36.i

.preheader36.i:                                   ; preds = %7
  br i1 %8, label %.lr.ph.i, label %_ZN2cv12batchDistL1_IhiEEvPKT_S3_miiPT0_PKh.exit

.lr.ph.i:                                         ; preds = %.preheader36.i
  %9 = icmp sgt i32 %4, 0
  %wide.trip.count.i29.i = zext nneg i32 %4 to i64
  %wide.trip.count50.i = zext nneg i32 %3 to i64
  br i1 %9, label %.lr.ph.split.us.i, label %.lr.ph.split.i

.lr.ph.split.us.i:                                ; preds = %.lr.ph.i, %_ZN2cvL6normL1IhiEET0_PKT_S4_i.exit35.us.i
  %indvars.iv47.i = phi i64 [ %indvars.iv.next48.i, %_ZN2cvL6normL1IhiEET0_PKT_S4_i.exit35.us.i ], [ 0, %.lr.ph.i ]
  %10 = getelementptr inbounds i8, ptr %6, i64 %indvars.iv47.i
  %11 = load i8, ptr %10, align 1
  %.not26.us.i = icmp eq i8 %11, 0
  br i1 %.not26.us.i, label %_ZN2cvL6normL1IhiEET0_PKT_S4_i.exit35.us.i, label %.lr.ph.preheader.i28.us.i

.lr.ph.preheader.i28.us.i:                        ; preds = %.lr.ph.split.us.i
  %12 = mul i64 %indvars.iv47.i, %2
  %13 = getelementptr inbounds i8, ptr %1, i64 %12
  br label %.lr.ph.i30.us.i

.lr.ph.i30.us.i:                                  ; preds = %.lr.ph.i30.us.i, %.lr.ph.preheader.i28.us.i
  %indvars.iv.i31.us.i = phi i64 [ 0, %.lr.ph.preheader.i28.us.i ], [ %indvars.iv.next.i33.us.i, %.lr.ph.i30.us.i ]
  %.011.i32.us.i = phi i32 [ 0, %.lr.ph.preheader.i28.us.i ], [ %22, %.lr.ph.i30.us.i ]
  %14 = getelementptr inbounds i8, ptr %0, i64 %indvars.iv.i31.us.i
  %15 = load i8, ptr %14, align 1
  %16 = zext i8 %15 to i32
  %17 = getelementptr inbounds i8, ptr %13, i64 %indvars.iv.i31.us.i
  %18 = load i8, ptr %17, align 1
  %19 = zext i8 %18 to i32
  %20 = sub nsw i32 %16, %19
  %21 = tail call i32 @llvm.abs.i32(i32 %20, i1 true)
  %22 = add nuw nsw i32 %21, %.011.i32.us.i
  %indvars.iv.next.i33.us.i = add nuw nsw i64 %indvars.iv.i31.us.i, 1
  %exitcond.not.i34.us.i = icmp eq i64 %indvars.iv.next.i33.us.i, %wide.trip.count.i29.i
  br i1 %exitcond.not.i34.us.i, label %_ZN2cvL6normL1IhiEET0_PKT_S4_i.exit35.us.i, label %.lr.ph.i30.us.i, !llvm.loop !33

_ZN2cvL6normL1IhiEET0_PKT_S4_i.exit35.us.i:       ; preds = %.lr.ph.i30.us.i, %.lr.ph.split.us.i
  %23 = phi i32 [ 2147483647, %.lr.ph.split.us.i ], [ %22, %.lr.ph.i30.us.i ]
  %24 = getelementptr inbounds i32, ptr %5, i64 %indvars.iv47.i
  store i32 %23, ptr %24, align 4
  %indvars.iv.next48.i = add nuw nsw i64 %indvars.iv47.i, 1
  %exitcond51.not.i = icmp eq i64 %indvars.iv.next48.i, %wide.trip.count50.i
  br i1 %exitcond51.not.i, label %_ZN2cv12batchDistL1_IhiEEvPKT_S3_miiPT0_PKh.exit, label %.lr.ph.split.us.i, !llvm.loop !34

.preheader.i:                                     ; preds = %7
  br i1 %8, label %.lr.ph41.i, label %_ZN2cv12batchDistL1_IhiEEvPKT_S3_miiPT0_PKh.exit

.lr.ph41.i:                                       ; preds = %.preheader.i
  %25 = icmp sgt i32 %4, 0
  %wide.trip.count.i.i = zext nneg i32 %4 to i64
  %wide.trip.count58.i = zext nneg i32 %3 to i64
  br i1 %25, label %.lr.ph.preheader.i.us.i, label %_ZN2cvL6normL1IhiEET0_PKT_S4_i.exit.preheader.i

_ZN2cvL6normL1IhiEET0_PKT_S4_i.exit.preheader.i:  ; preds = %.lr.ph41.i
  %26 = shl nuw nsw i64 %wide.trip.count58.i, 2
  tail call void @llvm.memset.p0.i64(ptr align 4 %5, i8 0, i64 %26, i1 false)
  br label %_ZN2cv12batchDistL1_IhiEEvPKT_S3_miiPT0_PKh.exit

.lr.ph.preheader.i.us.i:                          ; preds = %.lr.ph41.i, %_ZN2cvL6normL1IhiEET0_PKT_S4_i.exit.loopexit.us.i
  %indvars.iv55.i = phi i64 [ %indvars.iv.next56.i, %_ZN2cvL6normL1IhiEET0_PKT_S4_i.exit.loopexit.us.i ], [ 0, %.lr.ph41.i ]
  %27 = mul i64 %indvars.iv55.i, %2
  %28 = getelementptr inbounds i8, ptr %1, i64 %27
  br label %.lr.ph.i.us.i

.lr.ph.i.us.i:                                    ; preds = %.lr.ph.i.us.i, %.lr.ph.preheader.i.us.i
  %indvars.iv.i.us.i = phi i64 [ 0, %.lr.ph.preheader.i.us.i ], [ %indvars.iv.next.i.us.i, %.lr.ph.i.us.i ]
  %.011.i.us.i = phi i32 [ 0, %.lr.ph.preheader.i.us.i ], [ %37, %.lr.ph.i.us.i ]
  %29 = getelementptr inbounds i8, ptr %0, i64 %indvars.iv.i.us.i
  %30 = load i8, ptr %29, align 1
  %31 = zext i8 %30 to i32
  %32 = getelementptr inbounds i8, ptr %28, i64 %indvars.iv.i.us.i
  %33 = load i8, ptr %32, align 1
  %34 = zext i8 %33 to i32
  %35 = sub nsw i32 %31, %34
  %36 = tail call i32 @llvm.abs.i32(i32 %35, i1 true)
  %37 = add nuw nsw i32 %36, %.011.i.us.i
  %indvars.iv.next.i.us.i = add nuw nsw i64 %indvars.iv.i.us.i, 1
  %exitcond.not.i.us.i = icmp eq i64 %indvars.iv.next.i.us.i, %wide.trip.count.i.i
  br i1 %exitcond.not.i.us.i, label %_ZN2cvL6normL1IhiEET0_PKT_S4_i.exit.loopexit.us.i, label %.lr.ph.i.us.i, !llvm.loop !33

_ZN2cvL6normL1IhiEET0_PKT_S4_i.exit.loopexit.us.i: ; preds = %.lr.ph.i.us.i
  %38 = getelementptr inbounds i32, ptr %5, i64 %indvars.iv55.i
  store i32 %37, ptr %38, align 4
  %indvars.iv.next56.i = add nuw nsw i64 %indvars.iv55.i, 1
  %exitcond59.not.i = icmp eq i64 %indvars.iv.next56.i, %wide.trip.count58.i
  br i1 %exitcond59.not.i, label %_ZN2cv12batchDistL1_IhiEEvPKT_S3_miiPT0_PKh.exit, label %.lr.ph.preheader.i.us.i, !llvm.loop !35

.lr.ph.split.i:                                   ; preds = %.lr.ph.i, %.lr.ph.split.i
  %indvars.iv.i = phi i64 [ %indvars.iv.next.i, %.lr.ph.split.i ], [ 0, %.lr.ph.i ]
  %39 = getelementptr inbounds i8, ptr %6, i64 %indvars.iv.i
  %40 = load i8, ptr %39, align 1
  %.not26.i = icmp eq i8 %40, 0
  %spec.select.i = select i1 %.not26.i, i32 2147483647, i32 0
  %41 = getelementptr inbounds i32, ptr %5, i64 %indvars.iv.i
  store i32 %spec.select.i, ptr %41, align 4
  %indvars.iv.next.i = add nuw nsw i64 %indvars.iv.i, 1
  %exitcond.not.i = icmp eq i64 %indvars.iv.next.i, %wide.trip.count50.i
  br i1 %exitcond.not.i, label %_ZN2cv12batchDistL1_IhiEEvPKT_S3_miiPT0_PKh.exit, label %.lr.ph.split.i, !llvm.loop !34

_ZN2cv12batchDistL1_IhiEEvPKT_S3_miiPT0_PKh.exit: ; preds = %.lr.ph.split.i, %_ZN2cvL6normL1IhiEET0_PKT_S4_i.exit35.us.i, %_ZN2cvL6normL1IhiEET0_PKT_S4_i.exit.loopexit.us.i, %.preheader36.i, %.preheader.i, %_ZN2cvL6normL1IhiEET0_PKT_S4_i.exit.preheader.i
  ret void
}